target datalayout = "e-m:e-p270:32:32-p271:32:32-p272:64:64-i64:64-i128:128-f80:128-n8:16:32:64-S128"
target triple = "x86_64-pc-linux-gnu"

%struct._proto_node = type { ptr, ptr, ptr, ptr, ptr, ptr, ptr }
%struct.field_info = type { ptr, i32, i32, i32, i32, i32, i32, ptr, ptr, ptr, i32, i32 }
%struct._header_field_info = type { ptr, ptr, i32, i32, ptr, i64, ptr, i32, i32, i32, i32, ptr }
%struct._output_fields = type { i8, i8, i8, i8, i8, ptr, ptr, ptr, ptr, ptr, i8, i8, i8 }
%struct.write_field_data_t = type { ptr, ptr }

; Function Attrs: null_pointer_is_valid sspstrong uwtable
define internal void @proto_tree_get_node_field_values(ptr noundef %0, ptr noundef %1) #0 {
  %3 = alloca ptr, align 8
  %4 = alloca ptr, align 8
  %5 = alloca ptr, align 8
  %6 = alloca ptr, align 8
  %7 = alloca ptr, align 8
  store ptr %0, ptr %3, align 8
  store ptr %1, ptr %4, align 8
  call void @llvm.lifetime.start.p0(i64 8, ptr %5) #15
  call void @llvm.lifetime.start.p0(i64 8, ptr %6) #15
  call void @llvm.lifetime.start.p0(i64 8, ptr %7) #15
  %8 = load ptr, ptr %4, align 8
  store ptr %8, ptr %5, align 8
  %9 = load ptr, ptr %3, align 8
  %10 = getelementptr inbounds nuw %struct._proto_node, ptr %9, i32 0, i32 5
  %11 = load ptr, ptr %10, align 8
  store ptr %11, ptr %6, align 8
  %12 = load ptr, ptr %6, align 8
  %13 = icmp ne ptr %12, null
  br i1 %13, label %14, label %39

14:                                               ; preds = %2
  %15 = load ptr, ptr %5, align 8
  %16 = getelementptr inbounds nuw %struct.write_field_data_t, ptr %15, i32 0, i32 0
  %17 = load ptr, ptr %16, align 8
  %18 = getelementptr inbounds nuw %struct._output_fields, ptr %17, i32 0, i32 7
  %19 = load ptr, ptr %18, align 8
  %20 = load ptr, ptr %6, align 8
  %21 = getelementptr inbounds nuw %struct.field_info, ptr %20, i32 0, i32 0
  %22 = load ptr, ptr %21, align 8
  %23 = getelementptr inbounds nuw %struct._header_field_info, ptr %22, i32 0, i32 1
  %24 = load ptr, ptr %23, align 8
  %25 = call ptr @g_hash_table_lookup(ptr noundef %19, ptr noundef %24)
  store ptr %25, ptr %7, align 8
  %26 = load ptr, ptr %7, align 8
  %27 = icmp ne ptr null, %26
  br i1 %27, label %28, label %38

28:                                               ; preds = %14
  %29 = load ptr, ptr %5, align 8
  %30 = getelementptr inbounds nuw %struct.write_field_data_t, ptr %29, i32 0, i32 0
  %31 = load ptr, ptr %30, align 8
  %32 = load ptr, ptr %7, align 8
  %33 = load ptr, ptr %6, align 8
  %34 = load ptr, ptr %5, align 8
  %35 = getelementptr inbounds nuw %struct.write_field_data_t, ptr %34, i32 0, i32 1
  %36 = load ptr, ptr %35, align 8
  %37 = call ptr @get_node_field_value(ptr noundef %33, ptr noundef %36)
  call void @format_field_values(ptr noundef %31, ptr noundef %32, ptr noundef %37)
  br label %38

38:                                               ; preds = %28, %14
  br label %39

39:                                               ; preds = %38, %2
  %40 = load ptr, ptr %3, align 8
  %41 = getelementptr inbounds nuw %struct._proto_node, ptr %40, i32 0, i32 0
  %42 = load ptr, ptr %41, align 8
  %43 = icmp ne ptr %42, null
  br i1 %43, label %44, label %47

44:                                               ; preds = %39
  %45 = load ptr, ptr %3, align 8
  %46 = load ptr, ptr %5, align 8
  call void @proto_tree_children_foreach(ptr noundef %45, ptr noundef @proto_tree_get_node_field_values, ptr noundef %46)
  br label %47

47:                                               ; preds = %44, %39
  call void @llvm.lifetime.end.p0(i64 8, ptr %7) #15
  call void @llvm.lifetime.end.p0(i64 8, ptr %6) #15
  call void @llvm.lifetime.end.p0(i64 8, ptr %5) #15
  ret void
}