; Function Attrs: null_pointer_is_valid sspstrong uwtable
define internal void @proto_tree_get_node_field_values(ptr noundef %0, ptr noundef %1) #0 {
  %3 = getelementptr inbounds nuw i8, ptr %0, i64 40
  %4 = load ptr, ptr %3, align 8
  %.not = icmp eq ptr %4, null
  br i1 %.not, label %18, label %5

5:                                                ; preds = %2
  %6 = load ptr, ptr %1, align 8
  %7 = getelementptr inbounds nuw i8, ptr %6, i64 24
  %8 = load ptr, ptr %7, align 8
  %9 = load ptr, ptr %4, align 8
  %10 = getelementptr inbounds nuw i8, ptr %9, i64 8
  %11 = load ptr, ptr %10, align 8
  %12 = tail call ptr @g_hash_table_lookup(ptr noundef %8, ptr noundef %11)
  %.not14 = icmp eq ptr %12, null
  br i1 %.not14, label %18, label %13

13:                                               ; preds = %5
  %14 = load ptr, ptr %1, align 8
  %15 = getelementptr inbounds nuw i8, ptr %1, i64 8
  %16 = load ptr, ptr %15, align 8
  %17 = tail call ptr @get_node_field_value(ptr noundef nonnull %4, ptr noundef %16)
  tail call fastcc void @format_field_values(ptr noundef %14, ptr noundef nonnull %12, ptr noundef %17)
  br label %18

18:                                               ; preds = %5, %13, %2
  %19 = load ptr, ptr %0, align 8
  %.not15 = icmp eq ptr %19, null
  br i1 %.not15, label %21, label %20

20:                                               ; preds = %18
  tail call void @proto_tree_children_foreach(ptr noundef %0, ptr noundef nonnull @proto_tree_get_node_field_values, ptr noundef %1)
  br label %21

21:                                               ; preds = %20, %18
  ret void
}